; Function Attrs: mustprogress uwtable
define void @_ZN7rocksdb10GetContext9SaveValueERKNS_5SliceEm(ptr noundef nonnull align 8 captures(none) dereferenceable(512) %0, ptr noundef nonnull readonly align 8 captures(none) dereferenceable(16) %1, i64 noundef %2) local_unnamed_addr #4 align 2 {
  %.sroa.0.0.copyload = load ptr, ptr %1, align 8, !tbaa !47
  %.sroa.2.0..sroa_idx = getelementptr inbounds nuw i8, ptr %1, i64 8
  %.sroa.2.0.copyload = load i64, ptr %.sroa.2.0..sroa_idx, align 8, !tbaa !48
  tail call void @_ZN7rocksdb10GetContext17appendToReplayLogENS_9ValueTypeENS_5SliceES2_(ptr noundef nonnull align 8 dereferenceable(512) %0, i8 noundef zeroext 1, ptr %.sroa.0.0.copyload, i64 %.sroa.2.0.copyload, ptr nonnull @.str, i64 0)
  %4 = getelementptr inbounds nuw i8, ptr %0, i64 264
  store i32 1, ptr %4, align 8, !tbaa !45
  %5 = getelementptr inbounds nuw i8, ptr %0, i64 384
  %6 = load ptr, ptr %5, align 8, !tbaa !54
  %.not = icmp eq ptr %6, null
  br i1 %.not, label %20, label %7, !prof !87

7:                                                ; preds = %3
  %8 = getelementptr inbounds nuw i8, ptr %6, i64 80
  %9 = load ptr, ptr %8, align 8, !tbaa !53
  %10 = load ptr, ptr %1, align 8, !tbaa !49
  %11 = load i64, ptr %.sroa.2.0..sroa_idx, align 8, !tbaa !50
  %12 = getelementptr inbounds nuw i8, ptr %9, i64 8
  %13 = load i64, ptr %12, align 8, !tbaa !16
  %14 = tail call noundef nonnull align 8 dereferenceable(32) ptr @_ZNSt7__cxx1112basic_stringIcSt11char_traitsIcESaIcEE10_M_replaceEmmPKcm(ptr noundef nonnull align 8 dereferenceable(32) %9, i64 noundef 0, i64 noundef %13, ptr noundef %10, i64 noundef %11)
  %15 = load ptr, ptr %8, align 8, !tbaa !53
  %16 = load ptr, ptr %15, align 8, !tbaa !11
  store ptr %16, ptr %6, align 8, !tbaa !49
  %17 = getelementptr inbounds nuw i8, ptr %15, i64 8
  %18 = load i64, ptr %17, align 8, !tbaa !16
  %19 = getelementptr inbounds nuw i8, ptr %6, i64 8
  store i64 %18, ptr %19, align 8, !tbaa !50
  br label %20

20:                                               ; preds = %7, %3
  ret void
}